target datalayout = "e-m:e-p270:32:32-p271:32:32-p272:64:64-i64:64-i128:128-f80:128-n8:16:32:64-S128"
target triple = "x86_64-pc-linux-gnu"

%struct.TupleDescData = type { i32, i32, i32, i32, ptr, [0 x %struct.CompactAttribute] }
%struct.CompactAttribute = type { i32, i16, i8, i8, i8, i8, i8, i8, i8 }
%struct.ExpandedRecordHeader = type { %struct.ExpandedObjectHeader, i32, i32, i32, i32, i32, ptr, i64, ptr, ptr, i32, i64, i64, i32, i8, ptr, ptr, ptr, ptr, ptr, ptr, %struct.MemoryContextCallback }
%struct.ExpandedObjectHeader = type { i32, ptr, ptr, [10 x i8], [10 x i8] }
%struct.MemoryContextCallback = type { ptr, ptr, ptr }
%struct.varattrib_1b = type { i8, [0 x i8] }

@.str.1 = private unnamed_addr constant [17 x i8] c"expandedrecord.c\00", align 1
@CurrentMemoryContext = external global ptr, align 8
@.str.3 = private unnamed_addr constant [45 x i8] c"cannot assign to field %d of expanded record\00", align 1
@__func__.expanded_record_set_field_internal = private unnamed_addr constant [35 x i8] c"expanded_record_set_field_internal\00", align 1
@.str.4 = private unnamed_addr constant [35 x i8] c"expanded record short-term context\00", align 1

; Function Attrs: inlinehint nounwind uwtable
define internal i64 @PointerGetDatum(ptr noundef %0) #5 {
  %2 = alloca ptr, align 8
  store ptr %0, ptr %2, align 8
  %3 = load ptr, ptr %2, align 8
  %4 = ptrtoint ptr %3 to i64
  ret i64 %4
}

; Function Attrs: inlinehint nounwind uwtable
define internal ptr @MemoryContextSwitchTo(ptr noundef %0) #5 {
  %2 = alloca ptr, align 8
  %3 = alloca ptr, align 8
  store ptr %0, ptr %2, align 8
  call void @llvm.lifetime.start.p0(i64 8, ptr %3) #9
  %4 = load ptr, ptr @CurrentMemoryContext, align 8
  store ptr %4, ptr %3, align 8
  %5 = load ptr, ptr %2, align 8
  store ptr %5, ptr @CurrentMemoryContext, align 8
  %6 = load ptr, ptr %3, align 8
  call void @llvm.lifetime.end.p0(i64 8, ptr %3) #9
  ret ptr %6
}

; Function Attrs: nounwind uwtable
define internal ptr @get_short_term_cxt(ptr noundef %0) #0 {
  %2 = alloca ptr, align 8
  %3 = alloca i32, align 4
  store ptr %0, ptr %2, align 8
  %4 = load ptr, ptr %2, align 8
  %5 = getelementptr inbounds nuw %struct.ExpandedRecordHeader, ptr %4, i32 0, i32 18
  %6 = load ptr, ptr %5, align 8
  %7 = icmp eq ptr %6, null
  br i1 %7, label %8, label %18

8:                                                ; preds = %1
  br label %9

9:                                                ; preds = %8
  br label %10

10:                                               ; preds = %9
  store i32 1, ptr %3, align 4
  %11 = load ptr, ptr %2, align 8
  %12 = getelementptr inbounds nuw %struct.ExpandedRecordHeader, ptr %11, i32 0, i32 0
  %13 = getelementptr inbounds nuw %struct.ExpandedObjectHeader, ptr %12, i32 0, i32 2
  %14 = load ptr, ptr %13, align 8
  %15 = call ptr @AllocSetContextCreateInternal(ptr noundef %14, ptr noundef @.str.4, i64 noundef 0, i64 noundef 1024, i64 noundef 8192)
  %16 = load ptr, ptr %2, align 8
  %17 = getelementptr inbounds nuw %struct.ExpandedRecordHeader, ptr %16, i32 0, i32 18
  store ptr %15, ptr %17, align 8
  br label %22

18:                                               ; preds = %1
  %19 = load ptr, ptr %2, align 8
  %20 = getelementptr inbounds nuw %struct.ExpandedRecordHeader, ptr %19, i32 0, i32 18
  %21 = load ptr, ptr %20, align 8
  call void @MemoryContextReset(ptr noundef %21)
  br label %22

22:                                               ; preds = %18, %10
  %23 = load ptr, ptr %2, align 8
  %24 = getelementptr inbounds nuw %struct.ExpandedRecordHeader, ptr %23, i32 0, i32 18
  %25 = load ptr, ptr %24, align 8
  ret ptr %25
}

; Function Attrs: inlinehint nounwind uwtable
define internal ptr @DatumGetPointer(i64 noundef %0) #5 {
  %2 = alloca i64, align 8
  store i64 %0, ptr %2, align 8
  %3 = load i64, ptr %2, align 8
  %4 = inttoptr i64 %3 to ptr
  ret ptr %4
}

; Function Attrs: inlinehint nounwind uwtable
define internal ptr @TupleDescCompactAttr(ptr noundef %0, i32 noundef %1) #5 {
  %3 = alloca ptr, align 8
  %4 = alloca i32, align 4
  %5 = alloca ptr, align 8
  store ptr %0, ptr %3, align 8
  store i32 %1, ptr %4, align 4
  call void @llvm.lifetime.start.p0(i64 8, ptr %5) #9
  %6 = load ptr, ptr %3, align 8
  %7 = getelementptr inbounds nuw %struct.TupleDescData, ptr %6, i32 0, i32 5
  %8 = load i32, ptr %4, align 4
  %9 = sext i32 %8 to i64
  %10 = getelementptr inbounds [0 x %struct.CompactAttribute], ptr %7, i64 0, i64 %9
  store ptr %10, ptr %5, align 8
  %11 = load ptr, ptr %5, align 8
  call void @llvm.lifetime.end.p0(i64 8, ptr %5) #9
  ret ptr %11
}

; Function Attrs: nounwind uwtable
define dso_local void @expanded_record_set_field_internal(ptr noundef %0, i32 noundef %1, i64 noundef %2, i1 noundef zeroext %3, i1 noundef zeroext %4, i1 noundef zeroext %5) #0 {
  %7 = alloca ptr, align 8
  %8 = alloca i32, align 4
  %9 = alloca i64, align 8
  %10 = alloca i8, align 1
  %11 = alloca i8, align 1
  %12 = alloca i8, align 1
  %13 = alloca ptr, align 8
  %14 = alloca ptr, align 8
  %15 = alloca ptr, align 8
  %16 = alloca ptr, align 8
  %17 = alloca ptr, align 8
  %18 = alloca ptr, align 8
  store ptr %0, ptr %7, align 8
  store i32 %1, ptr %8, align 4
  store i64 %2, ptr %9, align 8
  %19 = zext i1 %3 to i8
  store i8 %19, ptr %10, align 1
  %20 = zext i1 %4 to i8
  store i8 %20, ptr %11, align 1
  %21 = zext i1 %5 to i8
  store i8 %21, ptr %12, align 1
  call void @llvm.lifetime.start.p0(i64 8, ptr %13) #9
  call void @llvm.lifetime.start.p0(i64 8, ptr %14) #9
  call void @llvm.lifetime.start.p0(i64 8, ptr %15) #9
  call void @llvm.lifetime.start.p0(i64 8, ptr %16) #9
  call void @llvm.lifetime.start.p0(i64 8, ptr %17) #9
  %22 = load ptr, ptr %7, align 8
  %23 = getelementptr inbounds nuw %struct.ExpandedRecordHeader, ptr %22, i32 0, i32 2
  %24 = load i32, ptr %23, align 4
  %25 = and i32 %24, 64
  %26 = icmp ne i32 %25, 0
  br i1 %26, label %27, label %36

27:                                               ; preds = %6
  %28 = load i8, ptr %12, align 1, !range !4, !noundef !5
  %29 = trunc i8 %28 to i1
  br i1 %29, label %30, label %36

30:                                               ; preds = %27
  %31 = load ptr, ptr %7, align 8
  %32 = load i32, ptr %8, align 4
  %33 = load i64, ptr %9, align 8
  %34 = load i8, ptr %10, align 1, !range !4, !noundef !5
  %35 = trunc i8 %34 to i1
  call void @check_domain_for_new_field(ptr noundef %31, i32 noundef %32, i64 noundef %33, i1 noundef zeroext %35)
  br label %36

36:                                               ; preds = %30, %27, %6
  %37 = load ptr, ptr %7, align 8
  %38 = getelementptr inbounds nuw %struct.ExpandedRecordHeader, ptr %37, i32 0, i32 2
  %39 = load i32, ptr %38, align 4
  %40 = and i32 %39, 4
  %41 = icmp ne i32 %40, 0
  br i1 %41, label %44, label %42

42:                                               ; preds = %36
  %43 = load ptr, ptr %7, align 8
  call void @deconstruct_expanded_record(ptr noundef %43)
  br label %44

44:                                               ; preds = %42, %36
  %45 = load ptr, ptr %7, align 8
  %46 = getelementptr inbounds nuw %struct.ExpandedRecordHeader, ptr %45, i32 0, i32 6
  %47 = load ptr, ptr %46, align 8
  store ptr %47, ptr %13, align 8
  %48 = load i32, ptr %8, align 4
  %49 = icmp sle i32 %48, 0
  br i1 %49, label %56, label %50

50:                                               ; preds = %44
  %51 = load i32, ptr %8, align 4
  %52 = load ptr, ptr %7, align 8
  %53 = getelementptr inbounds nuw %struct.ExpandedRecordHeader, ptr %52, i32 0, i32 10
  %54 = load i32, ptr %53, align 8
  %55 = icmp sgt i32 %51, %54
  br label %56

56:                                               ; preds = %50, %44
  %57 = phi i1 [ true, %44 ], [ %55, %50 ]
  %58 = zext i1 %57 to i32
  %59 = icmp ne i32 %58, 0
  %60 = zext i1 %59 to i32
  %61 = sext i32 %60 to i64
  %62 = call i64 @llvm.expect.i64(i64 %61, i64 0)
  %63 = icmp ne i64 %62, 0
  br i1 %63, label %64, label %76

64:                                               ; preds = %56
  br label %65

65:                                               ; preds = %64
  br i1 true, label %66, label %68

66:                                               ; preds = %65
  %67 = call zeroext i1 @errstart_cold(i32 noundef 21, ptr noundef null) #10
  br i1 %67, label %70, label %73

68:                                               ; preds = %65
  %69 = call zeroext i1 @errstart(i32 noundef 21, ptr noundef null)
  br i1 %69, label %70, label %73

70:                                               ; preds = %68, %66
  %71 = load i32, ptr %8, align 4
  %72 = call i32 (ptr, ...) @errmsg_internal(ptr noundef @.str.3, i32 noundef %71)
  call void @errfinish(ptr noundef @.str.1, i32 noundef 1143, ptr noundef @__func__.expanded_record_set_field_internal)
  br label %73

73:                                               ; preds = %70, %68, %66
  unreachable

74:                                               ; No predecessors!
  br label %75

75:                                               ; preds = %74
  br label %76

76:                                               ; preds = %75, %56
  %77 = load ptr, ptr %13, align 8
  %78 = load i32, ptr %8, align 4
  %79 = sub i32 %78, 1
  %80 = call ptr @TupleDescCompactAttr(ptr noundef %77, i32 noundef %79)
  store ptr %80, ptr %14, align 8
  %81 = load i8, ptr %10, align 1, !range !4, !noundef !5
  %82 = trunc i8 %81 to i1
  br i1 %82, label %159, label %83

83:                                               ; preds = %76
  %84 = load ptr, ptr %14, align 8
  %85 = getelementptr inbounds nuw %struct.CompactAttribute, ptr %84, i32 0, i32 2
  %86 = load i8, ptr %85, align 2, !range !4, !noundef !5
  %87 = trunc i8 %86 to i1
  br i1 %87, label %159, label %88

88:                                               ; preds = %83
  call void @llvm.lifetime.start.p0(i64 8, ptr %18) #9
  %89 = load i8, ptr %11, align 1, !range !4, !noundef !5
  %90 = trunc i8 %89 to i1
  br i1 %90, label %91, label %116

91:                                               ; preds = %88
  %92 = load ptr, ptr %14, align 8
  %93 = getelementptr inbounds nuw %struct.CompactAttribute, ptr %92, i32 0, i32 1
  %94 = load i16, ptr %93, align 4
  %95 = sext i16 %94 to i32
  %96 = icmp eq i32 %95, -1
  br i1 %96, label %97, label %114

97:                                               ; preds = %91
  %98 = load i64, ptr %9, align 8
  %99 = call ptr @DatumGetPointer(i64 noundef %98)
  %100 = getelementptr inbounds nuw %struct.varattrib_1b, ptr %99, i32 0, i32 0
  %101 = load i8, ptr %100, align 1
  %102 = zext i8 %101 to i32
  %103 = icmp eq i32 %102, 1
  br i1 %103, label %104, label %114

104:                                              ; preds = %97
  %105 = load ptr, ptr %7, align 8
  %106 = call ptr @get_short_term_cxt(ptr noundef %105)
  %107 = call ptr @MemoryContextSwitchTo(ptr noundef %106)
  store ptr %107, ptr %18, align 8
  %108 = load i64, ptr %9, align 8
  %109 = call ptr @DatumGetPointer(i64 noundef %108)
  %110 = call ptr @detoast_external_attr(ptr noundef %109)
  %111 = call i64 @PointerGetDatum(ptr noundef %110)
  store i64 %111, ptr %9, align 8
  %112 = load ptr, ptr %18, align 8
  %113 = call ptr @MemoryContextSwitchTo(ptr noundef %112)
  br label %115

114:                                              ; preds = %97, %91
  store i8 0, ptr %11, align 1
  br label %115

115:                                              ; preds = %114, %104
  br label %116

116:                                              ; preds = %115, %88
  %117 = load ptr, ptr %7, align 8
  %118 = getelementptr inbounds nuw %struct.ExpandedRecordHeader, ptr %117, i32 0, i32 0
  %119 = getelementptr inbounds nuw %struct.ExpandedObjectHeader, ptr %118, i32 0, i32 2
  %120 = load ptr, ptr %119, align 8
  %121 = call ptr @MemoryContextSwitchTo(ptr noundef %120)
  store ptr %121, ptr %18, align 8
  %122 = load i64, ptr %9, align 8
  %123 = load ptr, ptr %14, align 8
  %124 = getelementptr inbounds nuw %struct.CompactAttribute, ptr %123, i32 0, i32 1
  %125 = load i16, ptr %124, align 4
  %126 = sext i16 %125 to i32
  %127 = call i64 @datumCopy(i64 noundef %122, i1 noundef zeroext false, i32 noundef %126)
  store i64 %127, ptr %9, align 8
  %128 = load ptr, ptr %18, align 8
  %129 = call ptr @MemoryContextSwitchTo(ptr noundef %128)
  %130 = load i8, ptr %11, align 1, !range !4, !noundef !5
  %131 = trunc i8 %130 to i1
  br i1 %131, label %132, label %136

132:                                              ; preds = %116
  %133 = load ptr, ptr %7, align 8
  %134 = getelementptr inbounds nuw %struct.ExpandedRecordHeader, ptr %133, i32 0, i32 18
  %135 = load ptr, ptr %134, align 8
  call void @MemoryContextReset(ptr noundef %135)
  br label %136

136:                                              ; preds = %132, %116
  %137 = load ptr, ptr %7, align 8
  %138 = getelementptr inbounds nuw %struct.ExpandedRecordHeader, ptr %137, i32 0, i32 2
  %139 = load i32, ptr %138, align 4
  %140 = or i32 %139, 8
  store i32 %140, ptr %138, align 4
  %141 = load ptr, ptr %14, align 8
  %142 = getelementptr inbounds nuw %struct.CompactAttribute, ptr %141, i32 0, i32 1
  %143 = load i16, ptr %142, align 4
  %144 = sext i16 %143 to i32
  %145 = icmp eq i32 %144, -1
  br i1 %145, label %146, label %158

146:                                              ; preds = %136
  %147 = load i64, ptr %9, align 8
  %148 = call ptr @DatumGetPointer(i64 noundef %147)
  %149 = getelementptr inbounds nuw %struct.varattrib_1b, ptr %148, i32 0, i32 0
  %150 = load i8, ptr %149, align 1
  %151 = zext i8 %150 to i32
  %152 = icmp eq i32 %151, 1
  br i1 %152, label %153, label %158

153:                                              ; preds = %146
  %154 = load ptr, ptr %7, align 8
  %155 = getelementptr inbounds nuw %struct.ExpandedRecordHeader, ptr %154, i32 0, i32 2
  %156 = load i32, ptr %155, align 4
  %157 = or i32 %156, 16
  store i32 %157, ptr %155, align 4
  br label %158

158:                                              ; preds = %153, %146, %136
  call void @llvm.lifetime.end.p0(i64 8, ptr %18) #9
  br label %159

159:                                              ; preds = %158, %83, %76
  %160 = load ptr, ptr %7, align 8
  %161 = getelementptr inbounds nuw %struct.ExpandedRecordHeader, ptr %160, i32 0, i32 8
  %162 = load ptr, ptr %161, align 8
  store ptr %162, ptr %15, align 8
  %163 = load ptr, ptr %7, align 8
  %164 = getelementptr inbounds nuw %struct.ExpandedRecordHeader, ptr %163, i32 0, i32 9
  %165 = load ptr, ptr %164, align 8
  store ptr %165, ptr %16, align 8
  %166 = load ptr, ptr %7, align 8
  %167 = getelementptr inbounds nuw %struct.ExpandedRecordHeader, ptr %166, i32 0, i32 2
  %168 = load i32, ptr %167, align 4
  %169 = and i32 %168, -2
  store i32 %169, ptr %167, align 4
  %170 = load ptr, ptr %7, align 8
  %171 = getelementptr inbounds nuw %struct.ExpandedRecordHeader, ptr %170, i32 0, i32 11
  store i64 0, ptr %171, align 8
  %172 = load ptr, ptr %14, align 8
  %173 = getelementptr inbounds nuw %struct.CompactAttribute, ptr %172, i32 0, i32 2
  %174 = load i8, ptr %173, align 2, !range !4, !noundef !5
  %175 = trunc i8 %174 to i1
  br i1 %175, label %192, label %176

176:                                              ; preds = %159
  %177 = load ptr, ptr %16, align 8
  %178 = load i32, ptr %8, align 4
  %179 = sub i32 %178, 1
  %180 = sext i32 %179 to i64
  %181 = getelementptr inbounds i8, ptr %177, i64 %180
  %182 = load i8, ptr %181, align 1, !range !4, !noundef !5
  %183 = trunc i8 %182 to i1
  br i1 %183, label %192, label %184

184:                                              ; preds = %176
  %185 = load ptr, ptr %15, align 8
  %186 = load i32, ptr %8, align 4
  %187 = sub i32 %186, 1
  %188 = sext i32 %187 to i64
  %189 = getelementptr inbounds i64, ptr %185, i64 %188
  %190 = load i64, ptr %189, align 8
  %191 = call ptr @DatumGetPointer(i64 noundef %190)
  store ptr %191, ptr %17, align 8
  br label %193

192:                                              ; preds = %176, %159
  store ptr null, ptr %17, align 8
  br label %193

193:                                              ; preds = %192, %184
  %194 = load i64, ptr %9, align 8
  %195 = load ptr, ptr %15, align 8
  %196 = load i32, ptr %8, align 4
  %197 = sub i32 %196, 1
  %198 = sext i32 %197 to i64
  %199 = getelementptr inbounds i64, ptr %195, i64 %198
  store i64 %194, ptr %199, align 8
  %200 = load i8, ptr %10, align 1, !range !4, !noundef !5
  %201 = trunc i8 %200 to i1
  %202 = load ptr, ptr %16, align 8
  %203 = load i32, ptr %8, align 4
  %204 = sub i32 %203, 1
  %205 = sext i32 %204 to i64
  %206 = getelementptr inbounds i8, ptr %202, i64 %205
  %207 = zext i1 %201 to i8
  store i8 %207, ptr %206, align 1
  %208 = load ptr, ptr %17, align 8
  %209 = icmp ne ptr %208, null
  br i1 %209, label %210, label %231

210:                                              ; preds = %193
  %211 = load ptr, ptr %7, align 8
  %212 = getelementptr inbounds nuw %struct.ExpandedRecordHeader, ptr %211, i32 0, i32 2
  %213 = load i32, ptr %212, align 4
  %214 = and i32 %213, 128
  %215 = icmp ne i32 %214, 0
  br i1 %215, label %231, label %216

216:                                              ; preds = %210
  %217 = load ptr, ptr %17, align 8
  %218 = load ptr, ptr %7, align 8
  %219 = getelementptr inbounds nuw %struct.ExpandedRecordHeader, ptr %218, i32 0, i32 16
  %220 = load ptr, ptr %219, align 8
  %221 = icmp ult ptr %217, %220
  br i1 %221, label %228, label %222

222:                                              ; preds = %216
  %223 = load ptr, ptr %17, align 8
  %224 = load ptr, ptr %7, align 8
  %225 = getelementptr inbounds nuw %struct.ExpandedRecordHeader, ptr %224, i32 0, i32 17
  %226 = load ptr, ptr %225, align 8
  %227 = icmp uge ptr %223, %226
  br i1 %227, label %228, label %230

228:                                              ; preds = %222, %216
  %229 = load ptr, ptr %17, align 8
  call void @pfree(ptr noundef %229)
  br label %230

230:                                              ; preds = %228, %222
  br label %231

231:                                              ; preds = %230, %210, %193
  call void @llvm.lifetime.end.p0(i64 8, ptr %17) #9
  call void @llvm.lifetime.end.p0(i64 8, ptr %16) #9
  call void @llvm.lifetime.end.p0(i64 8, ptr %15) #9
  call void @llvm.lifetime.end.p0(i64 8, ptr %14) #9
  call void @llvm.lifetime.end.p0(i64 8, ptr %13) #9
  ret void
}