; Function Attrs: nounwind uwtable
define dso_local void @expanded_record_set_field_internal(ptr noundef %0, i32 noundef %1, i64 noundef %2, i1 noundef zeroext %3, i1 noundef zeroext %4, i1 noundef zeroext %5) local_unnamed_addr #0 {
  %7 = zext i1 %3 to i8
  %8 = getelementptr inbounds nuw i8, ptr %0, i64 52
  %9 = load i32, ptr %8, align 4
  %10 = and i32 %9, 64
  %.not = icmp ne i32 %10, 0
  %brmerge.not = and i1 %5, %.not
  br i1 %brmerge.not, label %11, label %12

11:                                               ; preds = %6
  tail call fastcc void @check_domain_for_new_field(ptr noundef nonnull %0, i32 noundef %1, i64 noundef %2, i1 noundef zeroext %3)
  %.pre = load i32, ptr %8, align 4
  br label %12

12:                                               ; preds = %6, %11
  %13 = phi i32 [ %9, %6 ], [ %.pre, %11 ]
  %14 = and i32 %13, 4
  %.not57 = icmp eq i32 %14, 0
  br i1 %.not57, label %15, label %16

15:                                               ; preds = %12
  tail call void @deconstruct_expanded_record(ptr noundef nonnull %0)
  br label %16

16:                                               ; preds = %15, %12
  %17 = getelementptr inbounds nuw i8, ptr %0, i64 72
  %18 = load ptr, ptr %17, align 8
  %19 = icmp slt i32 %1, 1
  br i1 %19, label %.critedge, label %20

20:                                               ; preds = %16
  %21 = getelementptr inbounds nuw i8, ptr %0, i64 104
  %22 = load i32, ptr %21, align 8
  %23 = icmp sgt i32 %1, %22
  br i1 %23, label %.critedge, label %26, !prof !4

.critedge:                                        ; preds = %16, %20
  %24 = tail call zeroext i1 @errstart_cold(i32 noundef 21, ptr noundef null) #9
  tail call void @llvm.assume(i1 %24)
  %25 = tail call i32 (ptr, ...) @errmsg_internal(ptr noundef nonnull @.str.3, i32 noundef %1) #8
  tail call void @errfinish(ptr noundef nonnull @.str.1, i32 noundef 1143, ptr noundef nonnull @__func__.expanded_record_set_field_internal) #8
  unreachable

26:                                               ; preds = %20
  %27 = add nsw i32 %1, -1
  %28 = getelementptr inbounds nuw i8, ptr %18, i64 24
  %29 = zext nneg i32 %27 to i64
  %30 = getelementptr inbounds nuw [0 x %struct.CompactAttribute], ptr %28, i64 0, i64 %29
  br i1 %3, label %79, label %31

31:                                               ; preds = %26
  %32 = getelementptr inbounds nuw i8, ptr %30, i64 6
  %33 = load i8, ptr %32, align 2, !range !5, !noundef !6
  %34 = trunc nuw i8 %33 to i1
  br i1 %34, label %79, label %35

35:                                               ; preds = %31
  br i1 %4, label %36, label %57

36:                                               ; preds = %35
  %37 = getelementptr inbounds nuw i8, ptr %30, i64 4
  %38 = load i16, ptr %37, align 4
  %39 = icmp eq i16 %38, -1
  br i1 %39, label %40, label %57

40:                                               ; preds = %36
  %41 = inttoptr i64 %2 to ptr
  %42 = load i8, ptr %41, align 1
  %43 = icmp eq i8 %42, 1
  br i1 %43, label %44, label %57

44:                                               ; preds = %40
  %45 = getelementptr inbounds nuw i8, ptr %0, i64 160
  %46 = load ptr, ptr %45, align 8
  %47 = icmp eq ptr %46, null
  br i1 %47, label %48, label %52

48:                                               ; preds = %44
  %49 = getelementptr inbounds nuw i8, ptr %0, i64 16
  %50 = load ptr, ptr %49, align 8
  %51 = tail call ptr @AllocSetContextCreateInternal(ptr noundef %50, ptr noundef nonnull @.str.4, i64 noundef 0, i64 noundef 1024, i64 noundef 8192) #8
  store ptr %51, ptr %45, align 8
  br label %get_short_term_cxt.exit

52:                                               ; preds = %44
  tail call void @MemoryContextReset(ptr noundef nonnull %46) #8
  %.pre.i = load ptr, ptr %45, align 8
  br label %get_short_term_cxt.exit

get_short_term_cxt.exit:                          ; preds = %48, %52
  %53 = phi ptr [ %.pre.i, %52 ], [ %51, %48 ]
  %54 = load ptr, ptr @CurrentMemoryContext, align 8
  store ptr %53, ptr @CurrentMemoryContext, align 8
  %55 = tail call ptr @detoast_external_attr(ptr noundef nonnull %41) #8
  %56 = ptrtoint ptr %55 to i64
  store ptr %54, ptr @CurrentMemoryContext, align 8
  br label %57

57:                                               ; preds = %36, %40, %get_short_term_cxt.exit, %35
  %.055.shrunk = phi i1 [ true, %get_short_term_cxt.exit ], [ false, %35 ], [ false, %40 ], [ false, %36 ]
  %.1 = phi i64 [ %56, %get_short_term_cxt.exit ], [ %2, %35 ], [ %2, %40 ], [ %2, %36 ]
  %58 = getelementptr inbounds nuw i8, ptr %0, i64 16
  %59 = load ptr, ptr %58, align 8
  %60 = load ptr, ptr @CurrentMemoryContext, align 8
  store ptr %59, ptr @CurrentMemoryContext, align 8
  %61 = getelementptr inbounds nuw i8, ptr %30, i64 4
  %62 = load i16, ptr %61, align 4
  %63 = sext i16 %62 to i32
  %64 = tail call i64 @datumCopy(i64 noundef %.1, i1 noundef zeroext false, i32 noundef %63) #8
  store ptr %60, ptr @CurrentMemoryContext, align 8
  br i1 %.055.shrunk, label %65, label %68

65:                                               ; preds = %57
  %66 = getelementptr inbounds nuw i8, ptr %0, i64 160
  %67 = load ptr, ptr %66, align 8
  tail call void @MemoryContextReset(ptr noundef %67) #8
  br label %68

68:                                               ; preds = %65, %57
  %69 = load i32, ptr %8, align 4
  %70 = or i32 %69, 8
  store i32 %70, ptr %8, align 4
  %71 = load i16, ptr %61, align 4
  %72 = icmp eq i16 %71, -1
  br i1 %72, label %73, label %79

73:                                               ; preds = %68
  %74 = inttoptr i64 %64 to ptr
  %75 = load i8, ptr %74, align 1
  %76 = icmp eq i8 %75, 1
  br i1 %76, label %77, label %79

77:                                               ; preds = %73
  %78 = or i32 %69, 24
  store i32 %78, ptr %8, align 4
  br label %79

79:                                               ; preds = %68, %73, %77, %31, %26
  %.054 = phi i64 [ %2, %26 ], [ %2, %31 ], [ %64, %77 ], [ %64, %73 ], [ %64, %68 ]
  %80 = getelementptr inbounds nuw i8, ptr %0, i64 88
  %81 = load ptr, ptr %80, align 8
  %82 = getelementptr inbounds nuw i8, ptr %0, i64 96
  %83 = load ptr, ptr %82, align 8
  %84 = load i32, ptr %8, align 4
  %85 = and i32 %84, -2
  store i32 %85, ptr %8, align 4
  %86 = getelementptr inbounds nuw i8, ptr %0, i64 112
  store i64 0, ptr %86, align 8
  %87 = getelementptr inbounds nuw i8, ptr %30, i64 6
  %88 = load i8, ptr %87, align 2, !range !5, !noundef !6
  %89 = trunc nuw i8 %88 to i1
  br i1 %89, label %.thread, label %90

90:                                               ; preds = %79
  %91 = getelementptr inbounds nuw i8, ptr %83, i64 %29
  %92 = load i8, ptr %91, align 1, !range !5, !noundef !6
  %93 = trunc nuw i8 %92 to i1
  br i1 %93, label %.thread, label %96

.thread:                                          ; preds = %90, %79
  %94 = getelementptr inbounds nuw i64, ptr %81, i64 %29
  store i64 %.054, ptr %94, align 8
  %95 = getelementptr inbounds nuw i8, ptr %83, i64 %29
  store i8 %7, ptr %95, align 1
  br label %111

96:                                               ; preds = %90
  %97 = getelementptr inbounds nuw i64, ptr %81, i64 %29
  %98 = load i64, ptr %97, align 8
  %99 = inttoptr i64 %98 to ptr
  store i64 %.054, ptr %97, align 8
  store i8 %7, ptr %91, align 1
  %.not58 = icmp eq i64 %98, 0
  br i1 %.not58, label %111, label %100

100:                                              ; preds = %96
  %101 = load i32, ptr %8, align 4
  %102 = and i32 %101, 128
  %.not59 = icmp eq i32 %102, 0
  br i1 %.not59, label %103, label %111

103:                                              ; preds = %100
  %104 = getelementptr inbounds nuw i8, ptr %0, i64 144
  %105 = load ptr, ptr %104, align 8
  %106 = icmp ugt ptr %105, %99
  br i1 %106, label %110, label %107

107:                                              ; preds = %103
  %108 = getelementptr inbounds nuw i8, ptr %0, i64 152
  %109 = load ptr, ptr %108, align 8
  %.not60 = icmp ugt ptr %109, %99
  br i1 %.not60, label %111, label %110

110:                                              ; preds = %107, %103
  tail call void @pfree(ptr noundef nonnull %99) #8
  br label %111

111:                                              ; preds = %.thread, %107, %110, %100, %96
  ret void
}